target datalayout = "e-m:e-p270:32:32-p271:32:32-p272:64:64-i64:64-i128:128-f80:128-n8:16:32:64-S128"
target triple = "x86_64-pc-linux-gnu"

%class.V3ErrorCode = type { i8 }
%class.VNType = type { i16 }
%class.AstNode = type { ptr, ptr, ptr, ptr, ptr, ptr, ptr, ptr, %class.VNType, %struct.anon, i8, i32, ptr, ptr, ptr, ptr, %class.VNUser, i32, i32, %class.VNUser, %class.VNUser, i32, i32, %class.VNUser }
%struct.anon = type { i8 }
%class.VNUser = type { %union.anon.3 }
%union.anon.3 = type { ptr }

@_ZN7AstNode12s_editCntGblE = dso_local global i64 0, align 8
@.str.557 = private unnamed_addr constant [111 x i8] c"generated/home/dtcxzyw/WorkSpace/Projects/compilers/llvm-opt-benchmark/bench/verilator/verilator/src/V3Ast.cpp\00", align 1
@.str.584 = private unnamed_addr constant [28 x i8] c"Null item passed to setOp1p\00", align 1
@.str.585 = private unnamed_addr constant [14 x i8] c"-setOp1pThs: \00", align 1
@.str.586 = private unnamed_addr constant [14 x i8] c"-setOp1pNew: \00", align 1
@.str.587 = private unnamed_addr constant [14 x i8] c"-setOp1pOut: \00", align 1

; Function Attrs: mustprogress nounwind uwtable
define linkonce_odr dso_local void @_ZN7AstNode12editCountIncEv(ptr noundef nonnull align 8 dereferenceable(152) %0) #5 comdat align 2 {
  %2 = alloca ptr, align 8
  store ptr %0, ptr %2, align 8
  %3 = load i64, ptr @_ZN7AstNode12s_editCntGblE, align 8
  %4 = add i64 %3, 1
  store i64 %4, ptr @_ZN7AstNode12s_editCntGblE, align 8
  ret void
}

; Function Attrs: mustprogress nounwind uwtable
define dso_local void @_ZN7AstNode15debugTreeChangeEPKS_PKcib(ptr noundef %0, ptr noundef %1, i32 noundef %2, i1 noundef zeroext %3) #5 align 2 {
  %5 = alloca ptr, align 8
  %6 = alloca ptr, align 8
  %7 = alloca i32, align 4
  %8 = alloca i8, align 1
  store ptr %0, ptr %5, align 8
  store ptr %1, ptr %6, align 8
  store i32 %2, ptr %7, align 4
  %9 = zext i1 %3 to i8
  store i8 %9, ptr %8, align 1
  ret void
}

; Function Attrs: mustprogress nounwind uwtable
define linkonce_odr dso_local void @_ZN11V3ErrorCodeC2ENS_2enE(ptr noundef nonnull align 1 dereferenceable(1) %0, i8 noundef zeroext %1) unnamed_addr #5 comdat align 2 {
  %3 = alloca ptr, align 8
  %4 = alloca i8, align 1
  store ptr %0, ptr %3, align 8
  store i8 %1, ptr %4, align 1
  %5 = load ptr, ptr %3, align 8
  %6 = getelementptr inbounds %class.V3ErrorCode, ptr %5, i32 0, i32 0
  %7 = load i8, ptr %4, align 1
  store i8 %7, ptr %6, align 1
  ret void
}

; Function Attrs: mustprogress uwtable
define dso_local void @_ZN7AstNode7setOp1pEPS_(ptr noundef nonnull align 8 dereferenceable(152) %0, ptr noundef %1) #4 align 2 {
  %3 = alloca ptr, align 8
  %4 = alloca ptr, align 8
  %5 = alloca %class.V3ErrorCode, align 1
  store ptr %0, ptr %3, align 8
  store ptr %1, ptr %4, align 8
  %6 = load ptr, ptr %3, align 8
  br label %7

7:                                                ; preds = %2
  %8 = load ptr, ptr %4, align 8
  %9 = icmp ne ptr %8, null
  %10 = xor i1 %9, true
  %11 = xor i1 %10, true
  %12 = xor i1 %11, true
  br i1 %12, label %13, label %19

13:                                               ; preds = %7
  call void @_ZN11V3ErrorCodeC2ENS_2enE(ptr noundef nonnull align 1 dereferenceable(1) %5, i8 noundef zeroext 4)
  %14 = getelementptr inbounds %class.V3ErrorCode, ptr %5, i32 0, i32 0
  %15 = load i8, ptr %14, align 1
  %16 = call noundef nonnull align 8 dereferenceable(112) ptr @_ZN7V3Error19v3errorPrepFileLineB5cxx11E11V3ErrorCodePKcib(i8 %15, ptr noundef @.str.557, i32 noundef 417, i1 noundef zeroext false)
  %17 = call noundef nonnull align 8 dereferenceable(112) ptr @_ZN7V3Error10v3errorStrB5cxx11Ev()
  %18 = call noundef nonnull align 8 dereferenceable(8) ptr @_ZStlsISt11char_traitsIcEERSt13basic_ostreamIcT_ES5_PKc(ptr noundef nonnull align 8 dereferenceable(8) %17, ptr noundef @.str.584)
  call void @_ZNK7AstNode15v3errorEndFatalERNSt7__cxx1119basic_ostringstreamIcSt11char_traitsIcESaIcEEE(ptr noundef nonnull align 8 dereferenceable(152) %6, ptr noundef nonnull align 8 dereferenceable(112) %18) #17
  unreachable

19:                                               ; preds = %7
  br label %20

20:                                               ; preds = %19
  br label %21

21:                                               ; preds = %20
  br label %22

22:                                               ; preds = %21
  br label %23

23:                                               ; preds = %22
  br label %24

24:                                               ; preds = %23
  br label %25

25:                                               ; preds = %24
  br label %26

26:                                               ; preds = %25
  call void @_ZN7AstNode15debugTreeChangeEPKS_PKcib(ptr noundef %6, ptr noundef @.str.585, i32 noundef 421, i1 noundef zeroext false)
  %27 = load ptr, ptr %4, align 8
  call void @_ZN7AstNode15debugTreeChangeEPKS_PKcib(ptr noundef %27, ptr noundef @.str.586, i32 noundef 422, i1 noundef zeroext true)
  %28 = load ptr, ptr %4, align 8
  %29 = getelementptr inbounds %class.AstNode, ptr %6, i32 0, i32 3
  store ptr %28, ptr %29, align 8
  %30 = load ptr, ptr %4, align 8
  call void @_ZN7AstNode12editCountIncEv(ptr noundef nonnull align 8 dereferenceable(152) %30)
  %31 = load ptr, ptr %4, align 8
  %32 = getelementptr inbounds %class.AstNode, ptr %31, i32 0, i32 2
  store ptr %6, ptr %32, align 8
  call void @_ZN7AstNode15debugTreeChangeEPKS_PKcib(ptr noundef %6, ptr noundef @.str.587, i32 noundef 426, i1 noundef zeroext false)
  ret void
}